target datalayout = "e-m:e-p270:32:32-p271:32:32-p272:64:64-i64:64-i128:128-f80:128-n8:16:32:64-S128"
target triple = "x86_64-pc-linux-gnu"

%"class.testing::internal::linked_ptr_internal" = type { ptr }
%"class.testing::internal::ParamIterator" = type { %"class.testing::internal::scoped_ptr.114" }
%"class.testing::internal::scoped_ptr.114" = type { ptr }
%"class.testing::internal::ParamIterator.117" = type { %"class.testing::internal::scoped_ptr.118" }
%"class.testing::internal::scoped_ptr.118" = type { ptr }
%"class.testing::internal::CartesianProductGenerator2<opencv_test::(anonymous namespace)::NormType, bool>::Iterator" = type { %"class.testing::internal::ParamIteratorInterface.128", ptr, %"class.testing::internal::ParamIterator", %"class.testing::internal::ParamIterator", %"class.testing::internal::ParamIterator", %"class.testing::internal::ParamIterator.117", %"class.testing::internal::ParamIterator.117", %"class.testing::internal::ParamIterator.117", %"class.testing::internal::linked_ptr.129" }
%"class.testing::internal::ParamIteratorInterface.128" = type { ptr }
%"class.testing::internal::linked_ptr.129" = type { ptr, %"class.testing::internal::linked_ptr_internal" }

; Function Attrs: mustprogress nounwind uwtable
define internal noundef ptr @_ZNK7testing8internal10scoped_ptrINS0_22ParamIteratorInterfaceIN11opencv_test12_GLOBAL__N_18NormTypeEEEEptEv(ptr noundef nonnull align 8 dereferenceable(8) %0) #9 align 2 {
  %2 = alloca ptr, align 8
  store ptr %0, ptr %2, align 8, !tbaa !489
  %3 = load ptr, ptr %2, align 8
  %4 = getelementptr inbounds nuw %"class.testing::internal::scoped_ptr.114", ptr %3, i32 0, i32 0
  %5 = load ptr, ptr %4, align 8, !tbaa !491
  ret ptr %5
}

; Function Attrs: mustprogress uwtable
define linkonce_odr hidden void @_ZN7testing8internal10scoped_ptrINS0_22ParamIteratorInterfaceIbEEE5resetEPS3_(ptr noundef nonnull align 8 dereferenceable(8) %0, ptr noundef %1) #6 comdat align 2 {
  %3 = alloca ptr, align 8
  %4 = alloca ptr, align 8
  store ptr %0, ptr %3, align 8, !tbaa !495
  store ptr %1, ptr %4, align 8, !tbaa !354
  %5 = load ptr, ptr %3, align 8
  %6 = load ptr, ptr %4, align 8, !tbaa !354
  %7 = getelementptr inbounds nuw %"class.testing::internal::scoped_ptr.118", ptr %5, i32 0, i32 0
  %8 = load ptr, ptr %7, align 8, !tbaa !497
  %9 = icmp ne ptr %6, %8
  br i1 %9, label %10, label %24

10:                                               ; preds = %2
  %11 = call noundef zeroext i1 @_ZN7testing8internal6IsTrueEb(i1 noundef zeroext true)
  br i1 %11, label %12, label %21

12:                                               ; preds = %10
  %13 = getelementptr inbounds nuw %"class.testing::internal::scoped_ptr.118", ptr %5, i32 0, i32 0
  %14 = load ptr, ptr %13, align 8, !tbaa !497
  %15 = icmp eq ptr %14, null
  br i1 %15, label %20, label %16

16:                                               ; preds = %12
  %17 = load ptr, ptr %14, align 8, !tbaa !20
  %18 = getelementptr inbounds ptr, ptr %17, i64 1
  %19 = load ptr, ptr %18, align 8
  call void %19(ptr noundef nonnull align 8 dereferenceable(8) %14) #3
  br label %20

20:                                               ; preds = %16, %12
  br label %21

21:                                               ; preds = %20, %10
  %22 = load ptr, ptr %4, align 8, !tbaa !354
  %23 = getelementptr inbounds nuw %"class.testing::internal::scoped_ptr.118", ptr %5, i32 0, i32 0
  store ptr %22, ptr %23, align 8, !tbaa !497
  br label %24

24:                                               ; preds = %21, %2
  ret void
}

; Function Attrs: mustprogress nounwind uwtable
define linkonce_odr hidden noundef nonnull align 8 dereferenceable(8) ptr @_ZNK7testing8internal10scoped_ptrINS0_22ParamIteratorInterfaceIbEEEdeEv(ptr noundef nonnull align 8 dereferenceable(8) %0) #9 comdat align 2 {
  %2 = alloca ptr, align 8
  store ptr %0, ptr %2, align 8, !tbaa !495
  %3 = load ptr, ptr %2, align 8
  %4 = getelementptr inbounds nuw %"class.testing::internal::scoped_ptr.118", ptr %3, i32 0, i32 0
  %5 = load ptr, ptr %4, align 8, !tbaa !497
  ret ptr %5
}

; Function Attrs: mustprogress nounwind uwtable
define linkonce_odr hidden noundef ptr @_ZNK7testing8internal10scoped_ptrINS0_22ParamIteratorInterfaceIbEEE3getEv(ptr noundef nonnull align 8 dereferenceable(8) %0) #9 comdat align 2 {
  %2 = alloca ptr, align 8
  store ptr %0, ptr %2, align 8, !tbaa !495
  %3 = load ptr, ptr %2, align 8
  %4 = getelementptr inbounds nuw %"class.testing::internal::scoped_ptr.118", ptr %3, i32 0, i32 0
  %5 = load ptr, ptr %4, align 8, !tbaa !497
  ret ptr %5
}

; Function Attrs: mustprogress nounwind uwtable
define linkonce_odr hidden noundef ptr @_ZNK7testing8internal10scoped_ptrINS0_22ParamIteratorInterfaceIbEEEptEv(ptr noundef nonnull align 8 dereferenceable(8) %0) #9 comdat align 2 {
  %2 = alloca ptr, align 8
  store ptr %0, ptr %2, align 8, !tbaa !495
  %3 = load ptr, ptr %2, align 8
  %4 = getelementptr inbounds nuw %"class.testing::internal::scoped_ptr.118", ptr %3, i32 0, i32 0
  %5 = load ptr, ptr %4, align 8, !tbaa !497
  ret ptr %5
}

; Function Attrs: mustprogress uwtable
define internal noundef nonnull align 8 dereferenceable(8) ptr @_ZN7testing8internal13ParamIteratorIN11opencv_test12_GLOBAL__N_18NormTypeEEppEv(ptr noundef nonnull align 8 dereferenceable(8) %0) #6 align 2 {
  %2 = alloca ptr, align 8
  store ptr %0, ptr %2, align 8, !tbaa !473
  %3 = load ptr, ptr %2, align 8
  %4 = getelementptr inbounds nuw %"class.testing::internal::ParamIterator", ptr %3, i32 0, i32 0
  %5 = call noundef ptr @_ZNK7testing8internal10scoped_ptrINS0_22ParamIteratorInterfaceIN11opencv_test12_GLOBAL__N_18NormTypeEEEEptEv(ptr noundef nonnull align 8 dereferenceable(8) %4)
  %6 = load ptr, ptr %5, align 8, !tbaa !20
  %7 = getelementptr inbounds ptr, ptr %6, i64 3
  %8 = load ptr, ptr %7, align 8
  call void %8(ptr noundef nonnull align 8 dereferenceable(8) %5)
  ret ptr %3
}

; Function Attrs: mustprogress uwtable
define linkonce_odr hidden noundef nonnull align 8 dereferenceable(8) ptr @_ZN7testing8internal13ParamIteratorIbEaSERKS2_(ptr noundef nonnull align 8 dereferenceable(8) %0, ptr noundef nonnull align 8 dereferenceable(8) %1) #6 comdat align 2 {
  %3 = alloca ptr, align 8
  %4 = alloca ptr, align 8
  store ptr %0, ptr %3, align 8, !tbaa !477
  store ptr %1, ptr %4, align 8, !tbaa !477
  %5 = load ptr, ptr %3, align 8
  %6 = load ptr, ptr %4, align 8, !tbaa !477
  %7 = icmp ne ptr %5, %6
  br i1 %7, label %8, label %17

8:                                                ; preds = %2
  %9 = getelementptr inbounds nuw %"class.testing::internal::ParamIterator.117", ptr %5, i32 0, i32 0
  %10 = load ptr, ptr %4, align 8, !tbaa !477
  %11 = getelementptr inbounds nuw %"class.testing::internal::ParamIterator.117", ptr %10, i32 0, i32 0
  %12 = call noundef ptr @_ZNK7testing8internal10scoped_ptrINS0_22ParamIteratorInterfaceIbEEEptEv(ptr noundef nonnull align 8 dereferenceable(8) %11)
  %13 = load ptr, ptr %12, align 8, !tbaa !20
  %14 = getelementptr inbounds ptr, ptr %13, i64 4
  %15 = load ptr, ptr %14, align 8
  %16 = call noundef ptr %15(ptr noundef nonnull align 8 dereferenceable(8) %12)
  call void @_ZN7testing8internal10scoped_ptrINS0_22ParamIteratorInterfaceIbEEE5resetEPS3_(ptr noundef nonnull align 8 dereferenceable(8) %9, ptr noundef %16)
  br label %17

17:                                               ; preds = %8, %2
  ret ptr %5
}

; Function Attrs: mustprogress uwtable
define linkonce_odr hidden noundef zeroext i1 @_ZNK7testing8internal13ParamIteratorIbEeqERKS2_(ptr noundef nonnull align 8 dereferenceable(8) %0, ptr noundef nonnull align 8 dereferenceable(8) %1) #6 comdat align 2 {
  %3 = alloca ptr, align 8
  %4 = alloca ptr, align 8
  store ptr %0, ptr %3, align 8, !tbaa !477
  store ptr %1, ptr %4, align 8, !tbaa !477
  %5 = load ptr, ptr %3, align 8
  %6 = getelementptr inbounds nuw %"class.testing::internal::ParamIterator.117", ptr %5, i32 0, i32 0
  %7 = call noundef ptr @_ZNK7testing8internal10scoped_ptrINS0_22ParamIteratorInterfaceIbEEE3getEv(ptr noundef nonnull align 8 dereferenceable(8) %6)
  %8 = load ptr, ptr %4, align 8, !tbaa !477
  %9 = getelementptr inbounds nuw %"class.testing::internal::ParamIterator.117", ptr %8, i32 0, i32 0
  %10 = call noundef ptr @_ZNK7testing8internal10scoped_ptrINS0_22ParamIteratorInterfaceIbEEE3getEv(ptr noundef nonnull align 8 dereferenceable(8) %9)
  %11 = icmp eq ptr %7, %10
  br i1 %11, label %22, label %12

12:                                               ; preds = %2
  %13 = getelementptr inbounds nuw %"class.testing::internal::ParamIterator.117", ptr %5, i32 0, i32 0
  %14 = call noundef ptr @_ZNK7testing8internal10scoped_ptrINS0_22ParamIteratorInterfaceIbEEEptEv(ptr noundef nonnull align 8 dereferenceable(8) %13)
  %15 = load ptr, ptr %4, align 8, !tbaa !477
  %16 = getelementptr inbounds nuw %"class.testing::internal::ParamIterator.117", ptr %15, i32 0, i32 0
  %17 = call noundef nonnull align 8 dereferenceable(8) ptr @_ZNK7testing8internal10scoped_ptrINS0_22ParamIteratorInterfaceIbEEEdeEv(ptr noundef nonnull align 8 dereferenceable(8) %16)
  %18 = load ptr, ptr %14, align 8, !tbaa !20
  %19 = getelementptr inbounds ptr, ptr %18, i64 6
  %20 = load ptr, ptr %19, align 8
  %21 = call noundef zeroext i1 %20(ptr noundef nonnull align 8 dereferenceable(8) %14, ptr noundef nonnull align 8 dereferenceable(8) %17)
  br label %22

22:                                               ; preds = %12, %2
  %23 = phi i1 [ true, %2 ], [ %21, %12 ]
  ret i1 %23
}

; Function Attrs: mustprogress uwtable
define linkonce_odr hidden noundef nonnull align 8 dereferenceable(8) ptr @_ZN7testing8internal13ParamIteratorIbEppEv(ptr noundef nonnull align 8 dereferenceable(8) %0) #6 comdat align 2 {
  %2 = alloca ptr, align 8
  store ptr %0, ptr %2, align 8, !tbaa !477
  %3 = load ptr, ptr %2, align 8
  %4 = getelementptr inbounds nuw %"class.testing::internal::ParamIterator.117", ptr %3, i32 0, i32 0
  %5 = call noundef ptr @_ZNK7testing8internal10scoped_ptrINS0_22ParamIteratorInterfaceIbEEEptEv(ptr noundef nonnull align 8 dereferenceable(8) %4)
  %6 = load ptr, ptr %5, align 8, !tbaa !20
  %7 = getelementptr inbounds ptr, ptr %6, i64 3
  %8 = load ptr, ptr %7, align 8
  call void %8(ptr noundef nonnull align 8 dereferenceable(8) %5)
  ret ptr %3
}

; Function Attrs: mustprogress uwtable
define internal void @_ZN7testing8internal26CartesianProductGenerator2IN11opencv_test12_GLOBAL__N_18NormTypeEbE8Iterator7AdvanceEv(ptr noundef nonnull align 8 dereferenceable(80) %0) unnamed_addr #6 align 2 {
  %2 = alloca ptr, align 8
  store ptr %0, ptr %2, align 8, !tbaa !576
  %3 = load ptr, ptr %2, align 8
  %4 = getelementptr inbounds nuw %"class.testing::internal::CartesianProductGenerator2<opencv_test::(anonymous namespace)::NormType, bool>::Iterator", ptr %3, i32 0, i32 7
  %5 = call noundef nonnull align 8 dereferenceable(8) ptr @_ZN7testing8internal13ParamIteratorIbEppEv(ptr noundef nonnull align 8 dereferenceable(8) %4)
  %6 = getelementptr inbounds nuw %"class.testing::internal::CartesianProductGenerator2<opencv_test::(anonymous namespace)::NormType, bool>::Iterator", ptr %3, i32 0, i32 7
  %7 = getelementptr inbounds nuw %"class.testing::internal::CartesianProductGenerator2<opencv_test::(anonymous namespace)::NormType, bool>::Iterator", ptr %3, i32 0, i32 6
  %8 = call noundef zeroext i1 @_ZNK7testing8internal13ParamIteratorIbEeqERKS2_(ptr noundef nonnull align 8 dereferenceable(8) %6, ptr noundef nonnull align 8 dereferenceable(8) %7)
  br i1 %8, label %9, label %15

9:                                                ; preds = %1
  %10 = getelementptr inbounds nuw %"class.testing::internal::CartesianProductGenerator2<opencv_test::(anonymous namespace)::NormType, bool>::Iterator", ptr %3, i32 0, i32 5
  %11 = getelementptr inbounds nuw %"class.testing::internal::CartesianProductGenerator2<opencv_test::(anonymous namespace)::NormType, bool>::Iterator", ptr %3, i32 0, i32 7
  %12 = call noundef nonnull align 8 dereferenceable(8) ptr @_ZN7testing8internal13ParamIteratorIbEaSERKS2_(ptr noundef nonnull align 8 dereferenceable(8) %11, ptr noundef nonnull align 8 dereferenceable(8) %10)
  %13 = getelementptr inbounds nuw %"class.testing::internal::CartesianProductGenerator2<opencv_test::(anonymous namespace)::NormType, bool>::Iterator", ptr %3, i32 0, i32 4
  %14 = call noundef nonnull align 8 dereferenceable(8) ptr @_ZN7testing8internal13ParamIteratorIN11opencv_test12_GLOBAL__N_18NormTypeEEppEv(ptr noundef nonnull align 8 dereferenceable(8) %13)
  br label %15

15:                                               ; preds = %9, %1
  call void @_ZN7testing8internal26CartesianProductGenerator2IN11opencv_test12_GLOBAL__N_18NormTypeEbE8Iterator19ComputeCurrentValueEv(ptr noundef nonnull align 8 dereferenceable(80) %3)
  ret void
}